target datalayout = "e-m:e-p270:32:32-p271:32:32-p272:64:64-i64:64-i128:128-f80:128-n8:16:32:64-S128"
target triple = "x86_64-pc-linux-gnu"

%struct.Curl_multi = type { i32, i32, i32, %struct.Curl_llist, %struct.Curl_llist, %struct.Curl_llist, %struct.Curl_llist, i64, ptr, ptr, ptr, ptr, %struct.Curl_hash, ptr, %struct.PslCache, ptr, ptr, i64, ptr, i64, ptr, i64, %struct.Curl_hash, %struct.Curl_hash, %struct.cpool, i64, i64, ptr, ptr, i64, %struct.curltime, [2 x i32], i32, i32, i8, i8 }
%struct.Curl_llist = type { ptr, ptr, ptr, i64 }
%struct.PslCache = type { ptr, i64, i8 }
%struct.Curl_hash = type { ptr, ptr, ptr, ptr, i64, i64 }
%struct.cpool = type { %struct.Curl_hash, i64, i64, i64, %struct.curltime, %struct.Curl_llist, ptr, ptr, ptr, ptr, i8 }
%struct.curltime = type { i64, i32 }

; Function Attrs: nounwind uwtable
define i32 @curl_multi_timeout(ptr noundef %0, ptr noundef %1) #0 {
  %3 = alloca i32, align 4
  %4 = alloca ptr, align 8
  %5 = alloca ptr, align 8
  %6 = alloca %struct.curltime, align 8
  %7 = alloca ptr, align 8
  %8 = alloca i32, align 4
  store ptr %0, ptr %4, align 8, !tbaa !7
  store ptr %1, ptr %5, align 8, !tbaa !245
  call void @llvm.lifetime.start.p0(i64 16, ptr %6) #9
  call void @llvm.lifetime.start.p0(i64 8, ptr %7) #9
  %9 = load ptr, ptr %4, align 8, !tbaa !7
  store ptr %9, ptr %7, align 8, !tbaa !9
  %10 = load ptr, ptr %7, align 8, !tbaa !9
  %11 = icmp ne ptr %10, null
  br i1 %11, label %12, label %17

12:                                               ; preds = %2
  %13 = load ptr, ptr %7, align 8, !tbaa !9
  %14 = getelementptr inbounds nuw %struct.Curl_multi, ptr %13, i32 0, i32 0
  %15 = load i32, ptr %14, align 8, !tbaa !11
  %16 = icmp eq i32 %15, 764702
  br i1 %16, label %18, label %17

17:                                               ; preds = %12, %2
  store i32 1, ptr %3, align 4
  store i32 1, ptr %8, align 4
  br label %31

18:                                               ; preds = %12
  %19 = load ptr, ptr %7, align 8, !tbaa !9
  %20 = getelementptr inbounds nuw %struct.Curl_multi, ptr %19, i32 0, i32 35
  %21 = load i8, ptr %20, align 1
  %22 = lshr i8 %21, 2
  %23 = and i8 %22, 1
  %24 = zext i8 %23 to i32
  %25 = icmp ne i32 %24, 0
  br i1 %25, label %26, label %27

26:                                               ; preds = %18
  store i32 8, ptr %3, align 4
  store i32 1, ptr %8, align 4
  br label %31

27:                                               ; preds = %18
  %28 = load ptr, ptr %7, align 8, !tbaa !9
  %29 = load ptr, ptr %5, align 8, !tbaa !245
  %30 = call i32 @multi_timeout(ptr noundef %28, ptr noundef %6, ptr noundef %29)
  store i32 %30, ptr %3, align 4
  store i32 1, ptr %8, align 4
  br label %31

31:                                               ; preds = %27, %26, %17
  call void @llvm.lifetime.end.p0(i64 8, ptr %7) #9
  call void @llvm.lifetime.end.p0(i64 16, ptr %6) #9
  %32 = load i32, ptr %3, align 4
  ret i32 %32
}