; Function Attrs: nounwind uwtable
define range(i32 0, 9) i32 @curl_multi_timeout(ptr noundef %0, ptr noundef writeonly captures(none) %1) local_unnamed_addr #0 {
  %3 = alloca %struct.curltime, align 8
  call void @llvm.lifetime.start.p0(i64 16, ptr nonnull %3) #19
  %.not = icmp eq ptr %0, null
  br i1 %.not, label %12, label %4

4:                                                ; preds = %2
  %5 = load i32, ptr %0, align 8, !tbaa !7
  %6 = icmp eq i32 %5, 764702
  br i1 %6, label %7, label %12

7:                                                ; preds = %4
  %8 = getelementptr inbounds nuw i8, ptr %0, i64 649
  %9 = load i8, ptr %8, align 1
  %10 = and i8 %9, 4
  %.not7 = icmp eq i8 %10, 0
  br i1 %.not7, label %11, label %12

11:                                               ; preds = %7
  call fastcc void @multi_timeout(ptr noundef nonnull %0, ptr noundef %3, ptr noundef %1)
  br label %12

12:                                               ; preds = %7, %2, %4, %11
  %.0 = phi i32 [ 0, %11 ], [ 1, %4 ], [ 1, %2 ], [ 8, %7 ]
  call void @llvm.lifetime.end.p0(i64 16, ptr nonnull %3) #19
  ret i32 %.0
}